; Function Attrs: nofree nounwind memory(read, inaccessiblemem: none) uwtable
define range(i32 0, 2) i32 @Scl_LibertyReadCellIsFlop(ptr noundef readonly captures(none) %0, ptr noundef readonly captures(none) %1) local_unnamed_addr #6 {
  %3 = getelementptr inbounds nuw i8, ptr %1, i64 36
  %4 = load i32, ptr %3, align 4
  %5 = icmp slt i32 %4, 0
  br i1 %5, label %Scl_LibertyCompare.exit.thread._crit_edge, label %Scl_LibertyItem.exit

Scl_LibertyItem.exit:                             ; preds = %2
  %6 = getelementptr inbounds nuw i8, ptr %0, i64 40
  %7 = load ptr, ptr %6, align 8
  %.not25 = icmp eq ptr %7, null
  br i1 %.not25, label %Scl_LibertyCompare.exit.thread._crit_edge, label %.lr.ph

.lr.ph:                                           ; preds = %Scl_LibertyItem.exit
  %8 = zext nneg i32 %4 to i64
  %9 = getelementptr inbounds nuw %struct.Scl_Item_t_, ptr %7, i64 %8
  %10 = getelementptr i8, ptr %0, i64 8
  %.val12 = load ptr, ptr %10, align 8
  %11 = getelementptr inbounds nuw i8, ptr %0, i64 40
  br label %12

12:                                               ; preds = %.lr.ph, %Scl_LibertyItem.exit19
  %.026 = phi ptr [ %9, %.lr.ph ], [ %26, %Scl_LibertyItem.exit19 ]
  %13 = getelementptr inbounds nuw i8, ptr %.026, i64 8
  %14 = load i64, ptr %13, align 4
  %.sroa.0.0.extract.trunc.i = trunc i64 %14 to i32
  %.sroa.4.0.extract.shift.i = lshr i64 %14, 32
  %.sroa.4.0.extract.trunc.i = trunc nuw i64 %.sroa.4.0.extract.shift.i to i32
  %sext.i = shl i64 %14, 32
  %15 = ashr exact i64 %sext.i, 32
  %16 = getelementptr inbounds i8, ptr %.val12, i64 %15
  %17 = sub nsw i32 %.sroa.4.0.extract.trunc.i, %.sroa.0.0.extract.trunc.i
  %18 = sext i32 %17 to i64
  %19 = tail call i32 @strncmp(ptr noundef readonly %16, ptr noundef nonnull @.str.21, i64 noundef %18) #30
  %.not.i = icmp eq i32 %19, 0
  %.not22 = icmp eq i32 %17, 2
  %or.cond = and i1 %.not.i, %.not22
  br i1 %or.cond, label %Scl_LibertyCompare.exit.thread._crit_edge, label %Scl_LibertyCompare.exit.thread

Scl_LibertyCompare.exit.thread:                   ; preds = %12
  %20 = tail call i32 @strncmp(ptr noundef readonly %16, ptr noundef nonnull @.str.22, i64 noundef %18) #30
  %.not.i17 = icmp eq i32 %20, 0
  %.not23 = icmp eq i32 %17, 5
  %or.cond24 = and i1 %.not23, %.not.i17
  br i1 %or.cond24, label %Scl_LibertyCompare.exit.thread._crit_edge, label %Scl_LibertyCompare.exit18.thread

Scl_LibertyCompare.exit18.thread:                 ; preds = %Scl_LibertyCompare.exit.thread
  %21 = getelementptr inbounds nuw i8, ptr %.026, i64 32
  %22 = load i32, ptr %21, align 4
  %23 = icmp slt i32 %22, 0
  br i1 %23, label %Scl_LibertyCompare.exit.thread._crit_edge, label %Scl_LibertyItem.exit19

Scl_LibertyItem.exit19:                           ; preds = %Scl_LibertyCompare.exit18.thread
  %24 = load ptr, ptr %11, align 8
  %25 = zext nneg i32 %22 to i64
  %26 = getelementptr inbounds nuw %struct.Scl_Item_t_, ptr %24, i64 %25
  %.not = icmp eq ptr %24, null
  br i1 %.not, label %Scl_LibertyCompare.exit.thread._crit_edge, label %12, !llvm.loop !22

Scl_LibertyCompare.exit.thread._crit_edge:        ; preds = %Scl_LibertyCompare.exit18.thread, %Scl_LibertyItem.exit19, %12, %Scl_LibertyCompare.exit.thread, %2, %Scl_LibertyItem.exit
  %.09 = phi i32 [ 0, %Scl_LibertyItem.exit ], [ 0, %2 ], [ 0, %Scl_LibertyCompare.exit18.thread ], [ 1, %Scl_LibertyCompare.exit.thread ], [ 1, %12 ], [ 0, %Scl_LibertyItem.exit19 ]
  ret i32 %.09
}